; Function Attrs: nofree norecurse nosync nounwind memory(read, argmem: none, inaccessiblemem: none) uwtable
define dso_local i32 @attribute_by_name(ptr noundef readnone %0) local_unnamed_addr #6 {
  br label %2

2:                                                ; preds = %1, %6
  %indvars.iv = phi i64 [ 0, %1 ], [ %indvars.iv.next, %6 ]
  %3 = getelementptr inbounds [41 x ptr], ptr @attribute_list, i64 0, i64 %indvars.iv
  %4 = load ptr, ptr %3, align 8
  %5 = icmp eq ptr %4, %0
  br i1 %5, label %.split.loop.exit8, label %6

6:                                                ; preds = %2
  %indvars.iv.next = add nuw nsw i64 %indvars.iv, 1
  %exitcond.not = icmp eq i64 %indvars.iv.next, 41
  br i1 %exitcond.not, label %.split.loop.exit, label %2, !llvm.loop !10

.split.loop.exit8:                                ; preds = %2
  %7 = trunc nuw nsw i64 %indvars.iv to i32
  br label %.split.loop.exit

.split.loop.exit:                                 ; preds = %6, %.split.loop.exit8
  %.05 = phi i32 [ %7, %.split.loop.exit8 ], [ 41, %6 ]
  ret i32 %.05
}